target datalayout = "e-m:e-p270:32:32-p271:32:32-p272:64:64-i64:64-i128:128-f80:128-n8:16:32:64-S128"
target triple = "x86_64-pc-linux-gnu"

%struct.cli_sz_hash = type { ptr, ptr, i32 }

; Function Attrs: nounwind uwtable
define internal i32 @hm_cmp(ptr noundef %0, ptr noundef %1, i32 noundef %2) #0 {
  %4 = alloca i32, align 4
  %5 = alloca ptr, align 8
  %6 = alloca ptr, align 8
  %7 = alloca i32, align 4
  %8 = alloca i32, align 4
  %9 = alloca i32, align 4
  store ptr %0, ptr %5, align 8
  store ptr %1, ptr %6, align 8
  store i32 %2, ptr %7, align 4
  %10 = load ptr, ptr %5, align 8
  %11 = load i32, ptr %10, align 4
  store i32 %11, ptr %8, align 4
  %12 = load ptr, ptr %6, align 8
  %13 = load i32, ptr %12, align 4
  store i32 %13, ptr %9, align 4
  %14 = load i32, ptr %8, align 4
  %15 = load i32, ptr %9, align 4
  %16 = icmp ne i32 %14, %15
  br i1 %16, label %17, label %24

17:                                               ; preds = %3
  %18 = load i32, ptr %8, align 4
  %19 = load i32, ptr %9, align 4
  %20 = icmp ult i32 %18, %19
  %21 = zext i1 %20 to i32
  %22 = mul nsw i32 %21, 2
  %23 = sub nsw i32 %22, 1
  store i32 %23, ptr %4, align 4
  br label %33

24:                                               ; preds = %3
  %25 = load ptr, ptr %5, align 8
  %26 = getelementptr inbounds i8, ptr %25, i64 4
  %27 = load ptr, ptr %6, align 8
  %28 = getelementptr inbounds i8, ptr %27, i64 4
  %29 = load i32, ptr %7, align 4
  %30 = sub i32 %29, 4
  %31 = zext i32 %30 to i64
  %32 = call i32 @memcmp(ptr noundef %26, ptr noundef %28, i64 noundef %31) #4
  store i32 %32, ptr %4, align 4
  br label %33

33:                                               ; preds = %24, %17
  %34 = load i32, ptr %4, align 4
  ret i32 %34
}

; Function Attrs: nounwind uwtable
define internal void @hm_sort(ptr noundef %0, i64 noundef %1, i64 noundef %2, i32 noundef %3) #0 {
  %5 = alloca ptr, align 8
  %6 = alloca i64, align 8
  %7 = alloca i64, align 8
  %8 = alloca i32, align 4
  %9 = alloca [32 x i8], align 16
  %10 = alloca [32 x i8], align 16
  %11 = alloca i64, align 8
  %12 = alloca i64, align 8
  %13 = alloca ptr, align 8
  store ptr %0, ptr %5, align 8
  store i64 %1, ptr %6, align 8
  store i64 %2, ptr %7, align 8
  store i32 %3, ptr %8, align 4
  %14 = load i64, ptr %6, align 8
  %15 = add i64 %14, 1
  %16 = load i64, ptr %7, align 8
  %17 = icmp uge i64 %15, %16
  br i1 %17, label %18, label %19

18:                                               ; preds = %4
  br label %205

19:                                               ; preds = %4
  %20 = load i64, ptr %6, align 8
  %21 = add i64 %20, 1
  store i64 %21, ptr %11, align 8
  %22 = load i64, ptr %7, align 8
  store i64 %22, ptr %12, align 8
  %23 = getelementptr inbounds [32 x i8], ptr %9, i64 0, i64 0
  %24 = load ptr, ptr %5, align 8
  %25 = getelementptr inbounds %struct.cli_sz_hash, ptr %24, i32 0, i32 0
  %26 = load ptr, ptr %25, align 8
  %27 = load i32, ptr %8, align 4
  %28 = zext i32 %27 to i64
  %29 = load i64, ptr %6, align 8
  %30 = mul i64 %28, %29
  %31 = getelementptr inbounds i8, ptr %26, i64 %30
  %32 = load i32, ptr %8, align 4
  %33 = zext i32 %32 to i64
  call void @llvm.memcpy.p0.p0.i64(ptr align 16 %23, ptr align 1 %31, i64 %33, i1 false)
  br label %34

34:                                               ; preds = %125, %19
  %35 = load i64, ptr %11, align 8
  %36 = load i64, ptr %12, align 8
  %37 = icmp ult i64 %35, %36
  br i1 %37, label %38, label %126

38:                                               ; preds = %34
  %39 = load ptr, ptr %5, align 8
  %40 = getelementptr inbounds %struct.cli_sz_hash, ptr %39, i32 0, i32 0
  %41 = load ptr, ptr %40, align 8
  %42 = load i32, ptr %8, align 4
  %43 = zext i32 %42 to i64
  %44 = load i64, ptr %11, align 8
  %45 = mul i64 %43, %44
  %46 = getelementptr inbounds i8, ptr %41, i64 %45
  %47 = getelementptr inbounds [32 x i8], ptr %9, i64 0, i64 0
  %48 = load i32, ptr %8, align 4
  %49 = call i32 @hm_cmp(ptr noundef %46, ptr noundef %47, i32 noundef %48)
  %50 = icmp sgt i32 %49, 0
  br i1 %50, label %51, label %122

51:                                               ; preds = %38
  %52 = load i64, ptr %12, align 8
  %53 = add i64 %52, -1
  store i64 %53, ptr %12, align 8
  %54 = load i64, ptr %11, align 8
  %55 = load i64, ptr %12, align 8
  %56 = icmp eq i64 %54, %55
  br i1 %56, label %57, label %58

57:                                               ; preds = %51
  br label %126

58:                                               ; preds = %51
  %59 = getelementptr inbounds [32 x i8], ptr %10, i64 0, i64 0
  %60 = load ptr, ptr %5, align 8
  %61 = getelementptr inbounds %struct.cli_sz_hash, ptr %60, i32 0, i32 0
  %62 = load ptr, ptr %61, align 8
  %63 = load i32, ptr %8, align 4
  %64 = zext i32 %63 to i64
  %65 = load i64, ptr %11, align 8
  %66 = mul i64 %64, %65
  %67 = getelementptr inbounds i8, ptr %62, i64 %66
  %68 = load i32, ptr %8, align 4
  %69 = zext i32 %68 to i64
  call void @llvm.memcpy.p0.p0.i64(ptr align 16 %59, ptr align 1 %67, i64 %69, i1 false)
  %70 = load ptr, ptr %5, align 8
  %71 = getelementptr inbounds %struct.cli_sz_hash, ptr %70, i32 0, i32 1
  %72 = load ptr, ptr %71, align 8
  %73 = load i64, ptr %11, align 8
  %74 = getelementptr inbounds ptr, ptr %72, i64 %73
  %75 = load ptr, ptr %74, align 8
  store ptr %75, ptr %13, align 8
  %76 = load ptr, ptr %5, align 8
  %77 = getelementptr inbounds %struct.cli_sz_hash, ptr %76, i32 0, i32 0
  %78 = load ptr, ptr %77, align 8
  %79 = load i32, ptr %8, align 4
  %80 = zext i32 %79 to i64
  %81 = load i64, ptr %11, align 8
  %82 = mul i64 %80, %81
  %83 = getelementptr inbounds i8, ptr %78, i64 %82
  %84 = load ptr, ptr %5, align 8
  %85 = getelementptr inbounds %struct.cli_sz_hash, ptr %84, i32 0, i32 0
  %86 = load ptr, ptr %85, align 8
  %87 = load i32, ptr %8, align 4
  %88 = zext i32 %87 to i64
  %89 = load i64, ptr %12, align 8
  %90 = mul i64 %88, %89
  %91 = getelementptr inbounds i8, ptr %86, i64 %90
  %92 = load i32, ptr %8, align 4
  %93 = zext i32 %92 to i64
  call void @llvm.memcpy.p0.p0.i64(ptr align 1 %83, ptr align 1 %91, i64 %93, i1 false)
  %94 = load ptr, ptr %5, align 8
  %95 = getelementptr inbounds %struct.cli_sz_hash, ptr %94, i32 0, i32 1
  %96 = load ptr, ptr %95, align 8
  %97 = load i64, ptr %12, align 8
  %98 = getelementptr inbounds ptr, ptr %96, i64 %97
  %99 = load ptr, ptr %98, align 8
  %100 = load ptr, ptr %5, align 8
  %101 = getelementptr inbounds %struct.cli_sz_hash, ptr %100, i32 0, i32 1
  %102 = load ptr, ptr %101, align 8
  %103 = load i64, ptr %11, align 8
  %104 = getelementptr inbounds ptr, ptr %102, i64 %103
  store ptr %99, ptr %104, align 8
  %105 = load ptr, ptr %5, align 8
  %106 = getelementptr inbounds %struct.cli_sz_hash, ptr %105, i32 0, i32 0
  %107 = load ptr, ptr %106, align 8
  %108 = load i32, ptr %8, align 4
  %109 = zext i32 %108 to i64
  %110 = load i64, ptr %12, align 8
  %111 = mul i64 %109, %110
  %112 = getelementptr inbounds i8, ptr %107, i64 %111
  %113 = getelementptr inbounds [32 x i8], ptr %10, i64 0, i64 0
  %114 = load i32, ptr %8, align 4
  %115 = zext i32 %114 to i64
  call void @llvm.memcpy.p0.p0.i64(ptr align 1 %112, ptr align 16 %113, i64 %115, i1 false)
  %116 = load ptr, ptr %13, align 8
  %117 = load ptr, ptr %5, align 8
  %118 = getelementptr inbounds %struct.cli_sz_hash, ptr %117, i32 0, i32 1
  %119 = load ptr, ptr %118, align 8
  %120 = load i64, ptr %12, align 8
  %121 = getelementptr inbounds ptr, ptr %119, i64 %120
  store ptr %116, ptr %121, align 8
  br label %125

122:                                              ; preds = %38
  %123 = load i64, ptr %11, align 8
  %124 = add i64 %123, 1
  store i64 %124, ptr %11, align 8
  br label %125

125:                                              ; preds = %122, %58
  br label %34

126:                                              ; preds = %57, %34
  %127 = load i64, ptr %11, align 8
  %128 = add i64 %127, -1
  store i64 %128, ptr %11, align 8
  %129 = load i64, ptr %11, align 8
  %130 = load i64, ptr %6, align 8
  %131 = icmp ne i64 %129, %130
  br i1 %131, label %132, label %196

132:                                              ; preds = %126
  %133 = getelementptr inbounds [32 x i8], ptr %10, i64 0, i64 0
  %134 = load ptr, ptr %5, align 8
  %135 = getelementptr inbounds %struct.cli_sz_hash, ptr %134, i32 0, i32 0
  %136 = load ptr, ptr %135, align 8
  %137 = load i32, ptr %8, align 4
  %138 = zext i32 %137 to i64
  %139 = load i64, ptr %11, align 8
  %140 = mul i64 %138, %139
  %141 = getelementptr inbounds i8, ptr %136, i64 %140
  %142 = load i32, ptr %8, align 4
  %143 = zext i32 %142 to i64
  call void @llvm.memcpy.p0.p0.i64(ptr align 16 %133, ptr align 1 %141, i64 %143, i1 false)
  %144 = load ptr, ptr %5, align 8
  %145 = getelementptr inbounds %struct.cli_sz_hash, ptr %144, i32 0, i32 1
  %146 = load ptr, ptr %145, align 8
  %147 = load i64, ptr %11, align 8
  %148 = getelementptr inbounds ptr, ptr %146, i64 %147
  %149 = load ptr, ptr %148, align 8
  store ptr %149, ptr %13, align 8
  %150 = load ptr, ptr %5, align 8
  %151 = getelementptr inbounds %struct.cli_sz_hash, ptr %150, i32 0, i32 0
  %152 = load ptr, ptr %151, align 8
  %153 = load i32, ptr %8, align 4
  %154 = zext i32 %153 to i64
  %155 = load i64, ptr %11, align 8
  %156 = mul i64 %154, %155
  %157 = getelementptr inbounds i8, ptr %152, i64 %156
  %158 = load ptr, ptr %5, align 8
  %159 = getelementptr inbounds %struct.cli_sz_hash, ptr %158, i32 0, i32 0
  %160 = load ptr, ptr %159, align 8
  %161 = load i32, ptr %8, align 4
  %162 = zext i32 %161 to i64
  %163 = load i64, ptr %6, align 8
  %164 = mul i64 %162, %163
  %165 = getelementptr inbounds i8, ptr %160, i64 %164
  %166 = load i32, ptr %8, align 4
  %167 = zext i32 %166 to i64
  call void @llvm.memcpy.p0.p0.i64(ptr align 1 %157, ptr align 1 %165, i64 %167, i1 false)
  %168 = load ptr, ptr %5, align 8
  %169 = getelementptr inbounds %struct.cli_sz_hash, ptr %168, i32 0, i32 1
  %170 = load ptr, ptr %169, align 8
  %171 = load i64, ptr %6, align 8
  %172 = getelementptr inbounds ptr, ptr %170, i64 %171
  %173 = load ptr, ptr %172, align 8
  %174 = load ptr, ptr %5, align 8
  %175 = getelementptr inbounds %struct.cli_sz_hash, ptr %174, i32 0, i32 1
  %176 = load ptr, ptr %175, align 8
  %177 = load i64, ptr %11, align 8
  %178 = getelementptr inbounds ptr, ptr %176, i64 %177
  store ptr %173, ptr %178, align 8
  %179 = load ptr, ptr %5, align 8
  %180 = getelementptr inbounds %struct.cli_sz_hash, ptr %179, i32 0, i32 0
  %181 = load ptr, ptr %180, align 8
  %182 = load i32, ptr %8, align 4
  %183 = zext i32 %182 to i64
  %184 = load i64, ptr %6, align 8
  %185 = mul i64 %183, %184
  %186 = getelementptr inbounds i8, ptr %181, i64 %185
  %187 = getelementptr inbounds [32 x i8], ptr %10, i64 0, i64 0
  %188 = load i32, ptr %8, align 4
  %189 = zext i32 %188 to i64
  call void @llvm.memcpy.p0.p0.i64(ptr align 1 %186, ptr align 16 %187, i64 %189, i1 false)
  %190 = load ptr, ptr %13, align 8
  %191 = load ptr, ptr %5, align 8
  %192 = getelementptr inbounds %struct.cli_sz_hash, ptr %191, i32 0, i32 1
  %193 = load ptr, ptr %192, align 8
  %194 = load i64, ptr %6, align 8
  %195 = getelementptr inbounds ptr, ptr %193, i64 %194
  store ptr %190, ptr %195, align 8
  br label %196

196:                                              ; preds = %132, %126
  %197 = load ptr, ptr %5, align 8
  %198 = load i64, ptr %6, align 8
  %199 = load i64, ptr %11, align 8
  %200 = load i32, ptr %8, align 4
  call void @hm_sort(ptr noundef %197, i64 noundef %198, i64 noundef %199, i32 noundef %200)
  %201 = load ptr, ptr %5, align 8
  %202 = load i64, ptr %12, align 8
  %203 = load i64, ptr %7, align 8
  %204 = load i32, ptr %8, align 4
  call void @hm_sort(ptr noundef %201, i64 noundef %202, i64 noundef %203, i32 noundef %204)
  br label %205

205:                                              ; preds = %196, %18
  ret void
}