; Function Attrs: nofree nounwind memory(readwrite, inaccessiblemem: none) uwtable
define internal fastcc void @hm_sort(ptr nocapture noundef readonly %0, i64 noundef %1, i64 noundef %2, i32 noundef %3) unnamed_addr #4 {
  %5 = alloca [32 x i8], align 16
  %6 = alloca [32 x i8], align 16
  %7 = add i64 %1, 1
  %.not93 = icmp ult i64 %7, %2
  br i1 %.not93, label %.lr.ph, label %tailrecurse._crit_edge

.lr.ph:                                           ; preds = %4
  %8 = zext i32 %3 to i64
  %9 = getelementptr inbounds i8, ptr %5, i64 4
  %10 = add i32 %3, -4
  %11 = zext i32 %10 to i64
  %12 = getelementptr inbounds i8, ptr %0, i64 8
  br label %13

13:                                               ; preds = %.lr.ph, %tailrecurse
  %14 = phi i64 [ %7, %.lr.ph ], [ %66, %tailrecurse ]
  %.tr8894 = phi i64 [ %1, %.lr.ph ], [ %.2, %tailrecurse ]
  %15 = load ptr, ptr %0, align 8
  %16 = mul i64 %.tr8894, %8
  %17 = getelementptr inbounds i8, ptr %15, i64 %16
  call void @llvm.memcpy.p0.p0.i64(ptr nonnull align 16 %5, ptr align 1 %17, i64 %8, i1 false)
  %18 = load i32, ptr %5, align 16
  br label %19

19:                                               ; preds = %13, %46
  %.092 = phi i64 [ %2, %13 ], [ %.1, %46 ]
  %.07691 = phi i64 [ %14, %13 ], [ %.177, %46 ]
  %20 = load ptr, ptr %0, align 8
  %21 = mul i64 %.07691, %8
  %22 = getelementptr inbounds i8, ptr %20, i64 %21
  %23 = load i32, ptr %22, align 4
  %.not.i = icmp eq i32 %23, %18
  br i1 %.not.i, label %hm_cmp.exit, label %24

24:                                               ; preds = %19
  %25 = icmp ult i32 %23, %18
  br i1 %25, label %hm_cmp.exit.thread, label %hm_cmp.exit.thread86

hm_cmp.exit:                                      ; preds = %19
  %26 = getelementptr inbounds i8, ptr %22, i64 4
  %27 = call i32 @memcmp(ptr noundef nonnull %26, ptr noundef nonnull %9, i64 noundef %11) #8
  %28 = icmp sgt i32 %27, 0
  br i1 %28, label %hm_cmp.exit.thread, label %hm_cmp.exit.thread86

hm_cmp.exit.thread:                               ; preds = %24, %hm_cmp.exit
  %29 = add i64 %.092, -1
  %30 = icmp eq i64 %.07691, %29
  br i1 %30, label %48, label %31

31:                                               ; preds = %hm_cmp.exit.thread
  call void @llvm.memcpy.p0.p0.i64(ptr nonnull align 16 %6, ptr nonnull align 1 %22, i64 %8, i1 false)
  %32 = load ptr, ptr %12, align 8
  %33 = getelementptr inbounds ptr, ptr %32, i64 %.07691
  %34 = load ptr, ptr %33, align 8
  %35 = mul i64 %29, %8
  %36 = getelementptr inbounds i8, ptr %20, i64 %35
  tail call void @llvm.memcpy.p0.p0.i64(ptr nonnull align 1 %22, ptr align 1 %36, i64 %8, i1 false)
  %37 = load ptr, ptr %12, align 8
  %38 = getelementptr inbounds ptr, ptr %37, i64 %29
  %39 = load ptr, ptr %38, align 8
  %40 = getelementptr inbounds ptr, ptr %37, i64 %.07691
  store ptr %39, ptr %40, align 8
  %41 = load ptr, ptr %0, align 8
  %42 = getelementptr inbounds i8, ptr %41, i64 %35
  call void @llvm.memcpy.p0.p0.i64(ptr align 1 %42, ptr nonnull align 16 %6, i64 %8, i1 false)
  %43 = load ptr, ptr %12, align 8
  %44 = getelementptr inbounds ptr, ptr %43, i64 %29
  store ptr %34, ptr %44, align 8
  br label %46

hm_cmp.exit.thread86:                             ; preds = %24, %hm_cmp.exit
  %45 = add nuw i64 %.07691, 1
  br label %46

46:                                               ; preds = %hm_cmp.exit.thread86, %31
  %.177 = phi i64 [ %.07691, %31 ], [ %45, %hm_cmp.exit.thread86 ]
  %.1 = phi i64 [ %29, %31 ], [ %.092, %hm_cmp.exit.thread86 ]
  %47 = icmp ult i64 %.177, %.1
  br i1 %47, label %19, label %48

48:                                               ; preds = %hm_cmp.exit.thread, %46
  %.076.lcssa = phi i64 [ %.07691, %hm_cmp.exit.thread ], [ %.177, %46 ]
  %.2 = phi i64 [ %.07691, %hm_cmp.exit.thread ], [ %.1, %46 ]
  %49 = add i64 %.076.lcssa, -1
  %.not84 = icmp eq i64 %49, %.tr8894
  br i1 %.not84, label %tailrecurse, label %50

50:                                               ; preds = %48
  %51 = load ptr, ptr %0, align 8
  %52 = mul i64 %49, %8
  %53 = getelementptr inbounds i8, ptr %51, i64 %52
  call void @llvm.memcpy.p0.p0.i64(ptr nonnull align 16 %6, ptr align 1 %53, i64 %8, i1 false)
  %54 = load ptr, ptr %12, align 8
  %55 = getelementptr inbounds ptr, ptr %54, i64 %49
  %56 = load ptr, ptr %55, align 8
  %57 = getelementptr inbounds i8, ptr %51, i64 %16
  tail call void @llvm.memcpy.p0.p0.i64(ptr align 1 %53, ptr align 1 %57, i64 %8, i1 false)
  %58 = load ptr, ptr %12, align 8
  %59 = getelementptr inbounds ptr, ptr %58, i64 %.tr8894
  %60 = load ptr, ptr %59, align 8
  %61 = getelementptr inbounds ptr, ptr %58, i64 %49
  store ptr %60, ptr %61, align 8
  %62 = load ptr, ptr %0, align 8
  %63 = getelementptr inbounds i8, ptr %62, i64 %16
  call void @llvm.memcpy.p0.p0.i64(ptr align 1 %63, ptr nonnull align 16 %6, i64 %8, i1 false)
  %64 = load ptr, ptr %12, align 8
  %65 = getelementptr inbounds ptr, ptr %64, i64 %.tr8894
  store ptr %56, ptr %65, align 8
  br label %tailrecurse

tailrecurse:                                      ; preds = %50, %48
  tail call fastcc void @hm_sort(ptr noundef nonnull %0, i64 noundef %.tr8894, i64 noundef %49, i32 noundef %3)
  %66 = add i64 %.2, 1
  %.not = icmp ult i64 %66, %2
  br i1 %.not, label %13, label %tailrecurse._crit_edge

tailrecurse._crit_edge:                           ; preds = %tailrecurse, %4
  ret void
}